; Function Attrs: nounwind uwtable
define ptr @ossl_cmp_revrepcontent_get_pkisi(ptr noundef readonly captures(address_is_null) %0, i32 noundef %1) local_unnamed_addr #0 {
  %.not = icmp eq ptr %0, null
  br i1 %.not, label %7, label %3, !prof !18

3:                                                ; preds = %2
  %4 = load ptr, ptr %0, align 8, !tbaa !83
  %5 = tail call ptr @OPENSSL_sk_value(ptr noundef %4, i32 noundef %1) #7
  %.not6 = icmp eq ptr %5, null
  br i1 %.not6, label %6, label %7

6:                                                ; preds = %3
  tail call void @ERR_new() #7
  tail call void @ERR_set_debug(ptr noundef nonnull @.str, i32 noundef 1010, ptr noundef nonnull @__func__.ossl_cmp_revrepcontent_get_pkisi) #7
  tail call void (i32, i32, ptr, ...) @ERR_set_error(i32 noundef 58, i32 noundef 132, ptr noundef null) #7
  br label %7

7:                                                ; preds = %3, %2, %6
  %.0 = phi ptr [ null, %6 ], [ null, %2 ], [ %5, %3 ]
  ret ptr %.0
}